; Function Attrs: mustprogress uwtable
define void @_ZN8facebook5velox10FlatVectorINS0_10StringViewEE9setNoCopyEiRKS2_(ptr noundef nonnull align 8 dereferenceable(280) %this, i32 noundef %idx, ptr nocapture noundef nonnull readonly align 8 dereferenceable(16) %value) local_unnamed_addr #3 align 2 {
entry:
  %rawValues_.i = getelementptr inbounds i8, ptr %this, i64 216
  %0 = load ptr, ptr %rawValues_.i, align 8
  %cmp.i = icmp eq ptr %0, null
  br i1 %cmp.i, label %if.then.i, label %_ZN8facebook5velox10FlatVectorINS0_10StringViewEE12ensureValuesEv.exit

if.then.i:                                        ; preds = %entry
  %call.i4 = tail call noundef ptr @_ZN8facebook5velox10FlatVectorINS0_10StringViewEE16mutableRawValuesEv(ptr noundef nonnull align 8 dereferenceable(280) %this)
  br label %_ZN8facebook5velox10FlatVectorINS0_10StringViewEE12ensureValuesEv.exit

_ZN8facebook5velox10FlatVectorINS0_10StringViewEE12ensureValuesEv.exit: ; preds = %entry, %if.then.i
  %nulls_ = getelementptr inbounds i8, ptr %this, i64 32
  %1 = load ptr, ptr %nulls_, align 8
  %cmp.i5.not = icmp eq ptr %1, null
  br i1 %cmp.i5.not, label %if.end, label %if.end.i

if.end.i:                                         ; preds = %_ZN8facebook5velox10FlatVectorINS0_10StringViewEE12ensureValuesEv.exit
  %length_.i = getelementptr inbounds i8, ptr %this, i64 56
  %2 = load i32, ptr %length_.i, align 8
  tail call void @_ZN8facebook5velox10BaseVector19ensureNullsCapacityEib(ptr noundef nonnull align 8 dereferenceable(99) %this, i32 noundef %2, i1 noundef zeroext true)
  %3 = load ptr, ptr %nulls_, align 8
  %vtable.i = load ptr, ptr %3, align 8
  %vfn.i = getelementptr inbounds i8, ptr %vtable.i, i64 24
  %4 = load ptr, ptr %vfn.i, align 8
  %call.i = tail call noundef zeroext i1 %4(ptr noundef nonnull align 8 dereferenceable(64) %3)
  br i1 %call.i, label %if.then.i8, label %_ZNK8facebook5velox6Buffer9asMutableImEEPT_v.exit

if.then.i8:                                       ; preds = %if.end.i
  tail call void @llvm.trap()
  unreachable

_ZNK8facebook5velox6Buffer9asMutableImEEPT_v.exit: ; preds = %if.end.i
  %data_.i = getelementptr inbounds i8, ptr %3, i64 16
  %5 = load ptr, ptr %data_.i, align 8
  %rem.i.i.i = and i32 %idx, 7
  %shl.i.i.i = shl nuw nsw i32 1, %rem.i.i.i
  %div2.i.i.i = lshr i32 %idx, 3
  %idxprom.i.i.i = zext nneg i32 %div2.i.i.i to i64
  %arrayidx.i.i.i = getelementptr inbounds i8, ptr %5, i64 %idxprom.i.i.i
  %6 = load i8, ptr %arrayidx.i.i.i, align 1
  %7 = trunc i32 %shl.i.i.i to i8
  %conv1.i.i.i = or i8 %6, %7
  store i8 %conv1.i.i.i, ptr %arrayidx.i.i.i, align 1
  br label %if.end

if.end:                                           ; preds = %_ZNK8facebook5velox6Buffer9asMutableImEEPT_v.exit, %_ZN8facebook5velox10FlatVectorINS0_10StringViewEE12ensureValuesEv.exit
  %8 = load ptr, ptr %rawValues_.i, align 8
  %idxprom = sext i32 %idx to i64
  %arrayidx = getelementptr inbounds %"struct.facebook::velox::StringView", ptr %8, i64 %idxprom
  tail call void @llvm.memcpy.p0.p0.i64(ptr noundef nonnull align 8 dereferenceable(16) %arrayidx, ptr noundef nonnull align 8 dereferenceable(16) %value, i64 16, i1 false)
  ret void
}